; Function Attrs: nounwind uwtable
define i64 @_zend_mm_block_size(ptr noundef readonly %0, ptr noundef %1) local_unnamed_addr #0 {
  %3 = load i32, ptr %0, align 8
  %.not = icmp eq i32 %3, 0
  br i1 %.not, label %16, label %4

4:                                                ; preds = %2
  %5 = getelementptr inbounds i8, ptr %0, i64 360
  %6 = load ptr, ptr %5, align 8
  %7 = icmp eq ptr %6, @tracked_malloc
  br i1 %7, label %8, label %zend_mm_size.exit

8:                                                ; preds = %4
  %9 = ptrtoint ptr %1 to i64
  %10 = lshr i64 %9, 3
  %11 = getelementptr inbounds i8, ptr %0, i64 384
  %12 = load ptr, ptr %11, align 8
  %13 = tail call ptr @zend_hash_index_find(ptr noundef %12, i64 noundef %10) #35
  %.not10 = icmp eq ptr %13, null
  br i1 %.not10, label %zend_mm_size.exit, label %14

14:                                               ; preds = %8
  %15 = load i64, ptr %13, align 8
  br label %zend_mm_size.exit

16:                                               ; preds = %2
  %17 = ptrtoint ptr %1 to i64
  %18 = and i64 %17, 2097151
  %19 = icmp eq i64 %18, 0
  br i1 %19, label %20, label %28

20:                                               ; preds = %16
  %21 = getelementptr inbounds i8, ptr %0, i64 304
  %.07.i.i = load ptr, ptr %21, align 8
  %.not8.i.i = icmp eq ptr %.07.i.i, null
  br i1 %.not8.i.i, label %._crit_edge.i.i, label %.lr.ph.i.i

.lr.ph.i.i:                                       ; preds = %20, %24
  %.09.i.i = phi ptr [ %.0.i.i, %24 ], [ %.07.i.i, %20 ]
  %22 = load ptr, ptr %.09.i.i, align 8
  %23 = icmp eq ptr %22, %1
  br i1 %23, label %zend_mm_get_huge_block_size.exit.i, label %24

24:                                               ; preds = %.lr.ph.i.i
  %25 = getelementptr inbounds i8, ptr %.09.i.i, i64 16
  %.0.i.i = load ptr, ptr %25, align 8
  %.not.i.i = icmp eq ptr %.0.i.i, null
  br i1 %.not.i.i, label %._crit_edge.i.i, label %.lr.ph.i.i

._crit_edge.i.i:                                  ; preds = %24, %20
  tail call fastcc void @zend_mm_panic() #34
  unreachable

zend_mm_get_huge_block_size.exit.i:               ; preds = %.lr.ph.i.i
  %26 = getelementptr inbounds i8, ptr %.09.i.i, i64 8
  %27 = load i64, ptr %26, align 8
  br label %zend_mm_size.exit

28:                                               ; preds = %16
  %29 = and i64 %17, -2097152
  %30 = inttoptr i64 %29 to ptr
  %31 = lshr i64 %18, 12
  %32 = getelementptr inbounds i8, ptr %30, i64 520
  %33 = getelementptr inbounds [512 x i32], ptr %32, i64 0, i64 %31
  %34 = load i32, ptr %33, align 4
  %35 = load ptr, ptr %30, align 2097152
  %.not.i = icmp eq ptr %35, %0
  br i1 %.not.i, label %37, label %36

36:                                               ; preds = %28
  tail call fastcc void @zend_mm_panic() #34
  unreachable

37:                                               ; preds = %28
  %.not14.i = icmp sgt i32 %34, -1
  br i1 %.not14.i, label %44, label %38

38:                                               ; preds = %37
  %39 = and i32 %34, 31
  %40 = zext nneg i32 %39 to i64
  %41 = getelementptr inbounds [30 x i32], ptr @bin_data_size, i64 0, i64 %40
  %42 = load i32, ptr %41, align 4
  %43 = zext i32 %42 to i64
  br label %zend_mm_size.exit

44:                                               ; preds = %37
  %45 = shl i32 %34, 12
  %46 = and i32 %45, 4190208
  %47 = zext nneg i32 %46 to i64
  br label %zend_mm_size.exit

zend_mm_size.exit:                                ; preds = %44, %38, %zend_mm_get_huge_block_size.exit.i, %4, %8, %14
  %.0 = phi i64 [ %15, %14 ], [ 0, %8 ], [ 0, %4 ], [ %27, %zend_mm_get_huge_block_size.exit.i ], [ %43, %38 ], [ %47, %44 ]
  ret i64 %.0
}